; Function Attrs: nounwind uwtable
define noalias nonnull ptr @l_Lean_RBMap_fold___boxed(ptr noundef readnone captures(none) %0, ptr noundef readnone captures(none) %1, ptr noundef readnone captures(none) %2, ptr noundef %3) local_unnamed_addr #1 {
  tail call void @lean_inc_heartbeat() #9
  %5 = tail call noalias ptr @mi_malloc_small(i64 noundef 24) #9
  %6 = icmp eq ptr %5, null
  br i1 %6, label %7, label %l_Lean_RBMap_fold.exit

7:                                                ; preds = %4
  tail call void @lean_internal_panic_out_of_memory() #10
  unreachable

l_Lean_RBMap_fold.exit:                           ; preds = %4
  %8 = getelementptr inbounds nuw i8, ptr %5, i64 4
  store i32 1, ptr %5, align 4, !tbaa !4
  store i32 -184549352, ptr %8, align 4
  %9 = getelementptr inbounds nuw i8, ptr %5, i64 8
  store ptr @l_Lean_RBMap_fold___rarg, ptr %9, align 8, !tbaa !10
  %10 = getelementptr inbounds nuw i8, ptr %5, i64 16
  store i16 3, ptr %10, align 8, !tbaa !12
  %11 = getelementptr inbounds nuw i8, ptr %5, i64 18
  store i16 0, ptr %11, align 2, !tbaa !12
  %12 = ptrtoint ptr %3 to i64
  %13 = and i64 %12, 1
  %.not = icmp eq i64 %13, 0
  br i1 %.not, label %14, label %lean_dec.exit

14:                                               ; preds = %l_Lean_RBMap_fold.exit
  %15 = load i32, ptr %3, align 4, !tbaa !4
  %16 = icmp sgt i32 %15, 1
  br i1 %16, label %17, label %19, !prof !9

17:                                               ; preds = %14
  %18 = add nsw i32 %15, -1
  store i32 %18, ptr %3, align 4, !tbaa !4
  br label %lean_dec.exit

19:                                               ; preds = %14
  %.not.i = icmp eq i32 %15, 0
  br i1 %.not.i, label %lean_dec.exit, label %20

20:                                               ; preds = %19
  tail call void @lean_dec_ref_cold(ptr noundef nonnull %3) #9
  br label %lean_dec.exit

lean_dec.exit:                                    ; preds = %20, %19, %17, %l_Lean_RBMap_fold.exit
  ret ptr %5
}